target datalayout = "e-m:e-p270:32:32-p271:32:32-p272:64:64-i64:64-i128:128-f80:128-n8:16:32:64-S128"
target triple = "x86_64-pc-linux-gnu"

%struct._object = type { %union.anon, ptr }
%union.anon = type { i64 }
%struct.anon = type { i32, i32 }

@_Py_NoneStruct = external global %struct._object, align 8
@.str.57 = private unnamed_addr constant [2 x i8] c"c\00", align 1
@.str.58 = private unnamed_addr constant [2 x i8] c"d\00", align 1
@PyExc_AssertionError = external global ptr, align 8
@test_w_code_invalid.keywords = internal constant [5 x ptr] [ptr @.str.127, ptr @.str.56, ptr @.str.57, ptr @.str.58, ptr null], align 16
@__const.test_w_code_invalid.formats_3 = private unnamed_addr constant [5 x ptr] [ptr @.str.128, ptr @.str.129, ptr @.str.130, ptr @.str.131, ptr null], align 16
@__const.test_w_code_invalid.formats_4 = private unnamed_addr constant [7 x ptr] [ptr @.str.132, ptr @.str.133, ptr @.str.134, ptr @.str.135, ptr @.str.136, ptr @.str.137, ptr null], align 16
@.str.138 = private unnamed_addr constant [31 x i8] c"test_w_code_invalid_suffix: %s\00", align 1
@PyExc_SystemError = external global ptr, align 8

; Function Attrs: alwaysinline nounwind uwtable
define internal i32 @_Py_IsImmortal(ptr noundef %0) #3 {
  %2 = alloca ptr, align 8
  store ptr %0, ptr %2, align 8, !tbaa !3
  %3 = load ptr, ptr %2, align 8, !tbaa !3
  %4 = getelementptr inbounds nuw %struct._object, ptr %3, i32 0, i32 0
  %5 = getelementptr inbounds nuw %struct.anon, ptr %4, i32 0, i32 0
  %6 = load i32, ptr %5, align 8, !tbaa !8
  %7 = icmp slt i32 %6, 0
  %8 = zext i1 %7 to i32
  ret i32 %8
}

; Function Attrs: inlinehint nounwind uwtable
define internal void @Py_XDECREF(ptr noundef %0) #2 {
  %2 = alloca ptr, align 8
  store ptr %0, ptr %2, align 8, !tbaa !3
  %3 = load ptr, ptr %2, align 8, !tbaa !3
  %4 = icmp ne ptr %3, null
  br i1 %4, label %5, label %7

5:                                                ; preds = %1
  %6 = load ptr, ptr %2, align 8, !tbaa !3
  call void @Py_DECREF(ptr noundef %6)
  br label %7

7:                                                ; preds = %5, %1
  ret void
}

; Function Attrs: alwaysinline nounwind uwtable
define internal void @Py_DECREF(ptr noundef %0) #3 {
  %2 = alloca ptr, align 8
  store ptr %0, ptr %2, align 8, !tbaa !3
  %3 = load ptr, ptr %2, align 8, !tbaa !3
  %4 = call i32 @_Py_IsImmortal(ptr noundef %3)
  %5 = icmp ne i32 %4, 0
  br i1 %5, label %6, label %7

6:                                                ; preds = %1
  br label %16

7:                                                ; preds = %1
  %8 = load ptr, ptr %2, align 8, !tbaa !3
  %9 = getelementptr inbounds nuw %struct._object, ptr %8, i32 0, i32 0
  %10 = getelementptr inbounds nuw %struct.anon, ptr %9, i32 0, i32 0
  %11 = load i32, ptr %10, align 8, !tbaa !8
  %12 = add i32 %11, -1
  store i32 %12, ptr %10, align 8, !tbaa !8
  %13 = icmp eq i32 %12, 0
  br i1 %13, label %14, label %16

14:                                               ; preds = %7
  %15 = load ptr, ptr %2, align 8, !tbaa !3
  call void @_Py_Dealloc(ptr noundef %15)
  br label %16

16:                                               ; preds = %6, %14, %7
  ret void
}

; Function Attrs: nounwind uwtable
define internal ptr @test_w_code_invalid(ptr noundef %0, ptr noundef %1) #0 {
  %3 = alloca ptr, align 8
  %4 = alloca ptr, align 8
  %5 = alloca ptr, align 8
  %6 = alloca [5 x ptr], align 16
  %7 = alloca [7 x ptr], align 16
  %8 = alloca i64, align 8
  %9 = alloca ptr, align 8
  %10 = alloca ptr, align 8
  %11 = alloca ptr, align 8
  %12 = alloca i32, align 4
  store ptr %0, ptr %4, align 8, !tbaa !3
  store ptr %1, ptr %5, align 8, !tbaa !3
  call void @llvm.lifetime.start.p0(i64 40, ptr %6) #9
  call void @llvm.memcpy.p0.p0.i64(ptr align 16 %6, ptr align 16 @__const.test_w_code_invalid.formats_3, i64 40, i1 false)
  call void @llvm.lifetime.start.p0(i64 56, ptr %7) #9
  call void @llvm.memcpy.p0.p0.i64(ptr align 16 %7, ptr align 16 @__const.test_w_code_invalid.formats_4, i64 56, i1 false)
  call void @llvm.lifetime.start.p0(i64 8, ptr %8) #9
  call void @llvm.lifetime.start.p0(i64 8, ptr %9) #9
  call void @llvm.lifetime.start.p0(i64 8, ptr %10) #9
  call void @llvm.lifetime.start.p0(i64 8, ptr %11) #9
  %13 = call ptr (i64, ...) @PyTuple_Pack(i64 noundef 1, ptr noundef @_Py_NoneStruct)
  store ptr %13, ptr %9, align 8, !tbaa !3
  %14 = icmp ne ptr %13, null
  br i1 %14, label %16, label %15

15:                                               ; preds = %2
  store ptr null, ptr %3, align 8
  store i32 1, ptr %12, align 4
  br label %111

16:                                               ; preds = %2
  %17 = call ptr @PyDict_New()
  store ptr %17, ptr %10, align 8, !tbaa !3
  %18 = load ptr, ptr %10, align 8, !tbaa !3
  %19 = icmp ne ptr %18, null
  br i1 %19, label %22, label %20

20:                                               ; preds = %16
  %21 = load ptr, ptr %9, align 8, !tbaa !3
  call void @Py_DECREF(ptr noundef %21)
  store ptr null, ptr %3, align 8
  store i32 1, ptr %12, align 4
  br label %111

22:                                               ; preds = %16
  %23 = load ptr, ptr %10, align 8, !tbaa !3
  %24 = call i32 @PyDict_SetItemString(ptr noundef %23, ptr noundef @.str.57, ptr noundef @_Py_NoneStruct)
  %25 = icmp ne i32 %24, 0
  br i1 %25, label %26, label %29

26:                                               ; preds = %22
  %27 = load ptr, ptr %9, align 8, !tbaa !3
  call void @Py_DECREF(ptr noundef %27)
  %28 = load ptr, ptr %10, align 8, !tbaa !3
  call void @Py_XDECREF(ptr noundef %28)
  store ptr null, ptr %3, align 8
  store i32 1, ptr %12, align 4
  br label %111

29:                                               ; preds = %22
  store i64 0, ptr %8, align 8, !tbaa !20
  br label %30

30:                                               ; preds = %60, %29
  %31 = load i64, ptr %8, align 8, !tbaa !20
  %32 = getelementptr [5 x ptr], ptr %6, i64 0, i64 %31
  %33 = load ptr, ptr %32, align 8, !tbaa !17
  %34 = icmp ne ptr %33, null
  br i1 %34, label %35, label %63

35:                                               ; preds = %30
  %36 = load ptr, ptr %9, align 8, !tbaa !3
  %37 = load ptr, ptr %10, align 8, !tbaa !3
  %38 = load i64, ptr %8, align 8, !tbaa !20
  %39 = getelementptr [5 x ptr], ptr %6, i64 0, i64 %38
  %40 = load ptr, ptr %39, align 8, !tbaa !17
  %41 = call i32 (ptr, ptr, ptr, ptr, ...) @PyArg_ParseTupleAndKeywords(ptr noundef %36, ptr noundef %37, ptr noundef %40, ptr noundef @test_w_code_invalid.keywords, ptr noundef %11, ptr noundef %11, ptr noundef %11)
  %42 = icmp ne i32 %41, 0
  br i1 %42, label %43, label %51

43:                                               ; preds = %35
  %44 = load ptr, ptr %9, align 8, !tbaa !3
  call void @Py_DECREF(ptr noundef %44)
  %45 = load ptr, ptr %10, align 8, !tbaa !3
  call void @Py_DECREF(ptr noundef %45)
  %46 = load ptr, ptr @PyExc_AssertionError, align 8, !tbaa !3
  %47 = load i64, ptr %8, align 8, !tbaa !20
  %48 = getelementptr [5 x ptr], ptr %6, i64 0, i64 %47
  %49 = load ptr, ptr %48, align 8, !tbaa !17
  %50 = call ptr (ptr, ptr, ...) @PyErr_Format(ptr noundef %46, ptr noundef @.str.138, ptr noundef %49)
  store ptr null, ptr %3, align 8
  store i32 1, ptr %12, align 4
  br label %111

51:                                               ; preds = %35
  %52 = load ptr, ptr @PyExc_SystemError, align 8, !tbaa !3
  %53 = call i32 @PyErr_ExceptionMatches(ptr noundef %52)
  %54 = icmp ne i32 %53, 0
  br i1 %54, label %58, label %55

55:                                               ; preds = %51
  %56 = load ptr, ptr %9, align 8, !tbaa !3
  call void @Py_DECREF(ptr noundef %56)
  %57 = load ptr, ptr %10, align 8, !tbaa !3
  call void @Py_DECREF(ptr noundef %57)
  store ptr null, ptr %3, align 8
  store i32 1, ptr %12, align 4
  br label %111

58:                                               ; preds = %51
  call void @PyErr_Clear()
  br label %59

59:                                               ; preds = %58
  br label %60

60:                                               ; preds = %59
  %61 = load i64, ptr %8, align 8, !tbaa !20
  %62 = add i64 %61, 1
  store i64 %62, ptr %8, align 8, !tbaa !20
  br label %30, !llvm.loop !38

63:                                               ; preds = %30
  %64 = load ptr, ptr %10, align 8, !tbaa !3
  %65 = call i32 @PyDict_DelItemString(ptr noundef %64, ptr noundef @.str.57)
  %66 = icmp ne i32 %65, 0
  br i1 %66, label %71, label %67

67:                                               ; preds = %63
  %68 = load ptr, ptr %10, align 8, !tbaa !3
  %69 = call i32 @PyDict_SetItemString(ptr noundef %68, ptr noundef @.str.58, ptr noundef @_Py_NoneStruct)
  %70 = icmp ne i32 %69, 0
  br i1 %70, label %71, label %74

71:                                               ; preds = %67, %63
  %72 = load ptr, ptr %10, align 8, !tbaa !3
  call void @Py_DECREF(ptr noundef %72)
  %73 = load ptr, ptr %9, align 8, !tbaa !3
  call void @Py_DECREF(ptr noundef %73)
  store ptr null, ptr %3, align 8
  store i32 1, ptr %12, align 4
  br label %111

74:                                               ; preds = %67
  store i64 0, ptr %8, align 8, !tbaa !20
  br label %75

75:                                               ; preds = %105, %74
  %76 = load i64, ptr %8, align 8, !tbaa !20
  %77 = getelementptr [7 x ptr], ptr %7, i64 0, i64 %76
  %78 = load ptr, ptr %77, align 8, !tbaa !17
  %79 = icmp ne ptr %78, null
  br i1 %79, label %80, label %108

80:                                               ; preds = %75
  %81 = load ptr, ptr %9, align 8, !tbaa !3
  %82 = load ptr, ptr %10, align 8, !tbaa !3
  %83 = load i64, ptr %8, align 8, !tbaa !20
  %84 = getelementptr [7 x ptr], ptr %7, i64 0, i64 %83
  %85 = load ptr, ptr %84, align 8, !tbaa !17
  %86 = call i32 (ptr, ptr, ptr, ptr, ...) @PyArg_ParseTupleAndKeywords(ptr noundef %81, ptr noundef %82, ptr noundef %85, ptr noundef @test_w_code_invalid.keywords, ptr noundef %11, ptr noundef %11, ptr noundef %11, ptr noundef %11)
  %87 = icmp ne i32 %86, 0
  br i1 %87, label %88, label %96

88:                                               ; preds = %80
  %89 = load ptr, ptr %9, align 8, !tbaa !3
  call void @Py_DECREF(ptr noundef %89)
  %90 = load ptr, ptr %10, align 8, !tbaa !3
  call void @Py_DECREF(ptr noundef %90)
  %91 = load ptr, ptr @PyExc_AssertionError, align 8, !tbaa !3
  %92 = load i64, ptr %8, align 8, !tbaa !20
  %93 = getelementptr [7 x ptr], ptr %7, i64 0, i64 %92
  %94 = load ptr, ptr %93, align 8, !tbaa !17
  %95 = call ptr (ptr, ptr, ...) @PyErr_Format(ptr noundef %91, ptr noundef @.str.138, ptr noundef %94)
  store ptr null, ptr %3, align 8
  store i32 1, ptr %12, align 4
  br label %111

96:                                               ; preds = %80
  %97 = load ptr, ptr @PyExc_SystemError, align 8, !tbaa !3
  %98 = call i32 @PyErr_ExceptionMatches(ptr noundef %97)
  %99 = icmp ne i32 %98, 0
  br i1 %99, label %103, label %100

100:                                              ; preds = %96
  %101 = load ptr, ptr %9, align 8, !tbaa !3
  call void @Py_DECREF(ptr noundef %101)
  %102 = load ptr, ptr %10, align 8, !tbaa !3
  call void @Py_DECREF(ptr noundef %102)
  store ptr null, ptr %3, align 8
  store i32 1, ptr %12, align 4
  br label %111

103:                                              ; preds = %96
  call void @PyErr_Clear()
  br label %104

104:                                              ; preds = %103
  br label %105

105:                                              ; preds = %104
  %106 = load i64, ptr %8, align 8, !tbaa !20
  %107 = add i64 %106, 1
  store i64 %107, ptr %8, align 8, !tbaa !20
  br label %75, !llvm.loop !39

108:                                              ; preds = %75
  %109 = load ptr, ptr %9, align 8, !tbaa !3
  call void @Py_DECREF(ptr noundef %109)
  %110 = load ptr, ptr %10, align 8, !tbaa !3
  call void @Py_DECREF(ptr noundef %110)
  store ptr @_Py_NoneStruct, ptr %3, align 8
  store i32 1, ptr %12, align 4
  br label %111

111:                                              ; preds = %108, %100, %88, %71, %55, %43, %26, %20, %15
  call void @llvm.lifetime.end.p0(i64 8, ptr %11) #9
  call void @llvm.lifetime.end.p0(i64 8, ptr %10) #9
  call void @llvm.lifetime.end.p0(i64 8, ptr %9) #9
  call void @llvm.lifetime.end.p0(i64 8, ptr %8) #9
  call void @llvm.lifetime.end.p0(i64 56, ptr %7) #9
  call void @llvm.lifetime.end.p0(i64 40, ptr %6) #9
  %112 = load ptr, ptr %3, align 8
  ret ptr %112
}