; Function Attrs: nounwind uwtable
define internal noundef ptr @test_w_code_invalid(ptr readnone captures(none) %0, ptr readnone captures(none) %1) #0 {
  %3 = alloca ptr, align 8
  call void @llvm.lifetime.start.p0(i64 8, ptr nonnull %3) #7
  %4 = tail call ptr (i64, ...) @PyTuple_Pack(i64 noundef 1, ptr noundef nonnull @_Py_NoneStruct) #7
  %.not = icmp eq ptr %4, null
  br i1 %.not, label %Py_DECREF.exit, label %5

5:                                                ; preds = %2
  %6 = tail call ptr @PyDict_New() #7
  %.not36 = icmp eq ptr %6, null
  br i1 %.not36, label %7, label %13

7:                                                ; preds = %5
  %8 = load i32, ptr %4, align 8, !tbaa !3
  %.not.i = icmp sgt i32 %8, -1
  br i1 %.not.i, label %9, label %Py_DECREF.exit

9:                                                ; preds = %7
  %10 = add nsw i32 %8, -1
  store i32 %10, ptr %4, align 8, !tbaa !3
  %11 = icmp eq i32 %10, 0
  br i1 %11, label %12, label %Py_DECREF.exit

12:                                               ; preds = %9
  tail call void @_Py_Dealloc(ptr noundef nonnull %4) #7
  br label %Py_DECREF.exit

13:                                               ; preds = %5
  %14 = tail call i32 @PyDict_SetItemString(ptr noundef nonnull %6, ptr noundef nonnull @.str.57, ptr noundef nonnull @_Py_NoneStruct) #7
  %.not37 = icmp eq i32 %14, 0
  br i1 %.not37, label %.preheader85, label %15

15:                                               ; preds = %13
  %16 = load i32, ptr %4, align 8, !tbaa !3
  %.not.i46 = icmp sgt i32 %16, -1
  br i1 %.not.i46, label %17, label %Py_DECREF.exit47

17:                                               ; preds = %15
  %18 = add nsw i32 %16, -1
  store i32 %18, ptr %4, align 8, !tbaa !3
  %19 = icmp eq i32 %18, 0
  br i1 %19, label %20, label %Py_DECREF.exit47

20:                                               ; preds = %17
  tail call void @_Py_Dealloc(ptr noundef nonnull %4) #7
  br label %Py_DECREF.exit47

Py_DECREF.exit47:                                 ; preds = %15, %17, %20
  %21 = load i32, ptr %6, align 8, !tbaa !3
  %.not.i.i = icmp sgt i32 %21, -1
  br i1 %.not.i.i, label %22, label %Py_DECREF.exit

22:                                               ; preds = %Py_DECREF.exit47
  %23 = add nsw i32 %21, -1
  store i32 %23, ptr %6, align 8, !tbaa !3
  %24 = icmp eq i32 %23, 0
  br i1 %24, label %25, label %Py_DECREF.exit

25:                                               ; preds = %22
  tail call void @_Py_Dealloc(ptr noundef nonnull %6) #7
  br label %Py_DECREF.exit

.preheader85:                                     ; preds = %13, %56
  %.03189 = phi i64 [ %57, %56 ], [ 0, %13 ]
  %26 = getelementptr [5 x ptr], ptr @__const.test_w_code_invalid.formats_3, i64 0, i64 %.03189
  %27 = load ptr, ptr %26, align 8, !tbaa !17
  %28 = call i32 (ptr, ptr, ptr, ptr, ...) @PyArg_ParseTupleAndKeywords(ptr noundef nonnull %4, ptr noundef nonnull %6, ptr noundef %27, ptr noundef nonnull @test_w_code_invalid.keywords, ptr noundef nonnull %3, ptr noundef nonnull %3, ptr noundef nonnull %3) #7
  %.not44 = icmp eq i32 %28, 0
  br i1 %.not44, label %42, label %29

29:                                               ; preds = %.preheader85
  %30 = load i32, ptr %4, align 8, !tbaa !3
  %.not.i48 = icmp sgt i32 %30, -1
  br i1 %.not.i48, label %31, label %Py_DECREF.exit49

31:                                               ; preds = %29
  %32 = add nsw i32 %30, -1
  store i32 %32, ptr %4, align 8, !tbaa !3
  %33 = icmp eq i32 %32, 0
  br i1 %33, label %34, label %Py_DECREF.exit49

34:                                               ; preds = %31
  call void @_Py_Dealloc(ptr noundef nonnull %4) #7
  br label %Py_DECREF.exit49

Py_DECREF.exit49:                                 ; preds = %29, %31, %34
  %35 = load i32, ptr %6, align 8, !tbaa !3
  %.not.i50 = icmp sgt i32 %35, -1
  br i1 %.not.i50, label %36, label %Py_DECREF.exit51

36:                                               ; preds = %Py_DECREF.exit49
  %37 = add nsw i32 %35, -1
  store i32 %37, ptr %6, align 8, !tbaa !3
  %38 = icmp eq i32 %37, 0
  br i1 %38, label %39, label %Py_DECREF.exit51

39:                                               ; preds = %36
  call void @_Py_Dealloc(ptr noundef nonnull %6) #7
  br label %Py_DECREF.exit51

Py_DECREF.exit51:                                 ; preds = %Py_DECREF.exit49, %36, %39
  %40 = load ptr, ptr @PyExc_AssertionError, align 8, !tbaa !12
  %41 = call ptr (ptr, ptr, ...) @PyErr_Format(ptr noundef %40, ptr noundef nonnull @.str.138, ptr noundef %27) #7
  br label %Py_DECREF.exit

42:                                               ; preds = %.preheader85
  %43 = load ptr, ptr @PyExc_SystemError, align 8, !tbaa !12
  %44 = call i32 @PyErr_ExceptionMatches(ptr noundef %43) #7
  %.not45 = icmp eq i32 %44, 0
  br i1 %.not45, label %45, label %56

45:                                               ; preds = %42
  %46 = load i32, ptr %4, align 8, !tbaa !3
  %.not.i52 = icmp sgt i32 %46, -1
  br i1 %.not.i52, label %47, label %Py_DECREF.exit53

47:                                               ; preds = %45
  %48 = add nsw i32 %46, -1
  store i32 %48, ptr %4, align 8, !tbaa !3
  %49 = icmp eq i32 %48, 0
  br i1 %49, label %50, label %Py_DECREF.exit53

50:                                               ; preds = %47
  call void @_Py_Dealloc(ptr noundef nonnull %4) #7
  br label %Py_DECREF.exit53

Py_DECREF.exit53:                                 ; preds = %45, %47, %50
  %51 = load i32, ptr %6, align 8, !tbaa !3
  %.not.i54 = icmp sgt i32 %51, -1
  br i1 %.not.i54, label %52, label %Py_DECREF.exit

52:                                               ; preds = %Py_DECREF.exit53
  %53 = add nsw i32 %51, -1
  store i32 %53, ptr %6, align 8, !tbaa !3
  %54 = icmp eq i32 %53, 0
  br i1 %54, label %55, label %Py_DECREF.exit

55:                                               ; preds = %52
  call void @_Py_Dealloc(ptr noundef nonnull %6) #7
  br label %Py_DECREF.exit

56:                                               ; preds = %42
  call void @PyErr_Clear() #7
  %57 = add nuw nsw i64 %.03189, 1
  %exitcond = icmp eq i64 %57, 4
  br i1 %exitcond, label %58, label %.preheader85, !llvm.loop !51

58:                                               ; preds = %56
  %59 = call i32 @PyDict_DelItemString(ptr noundef nonnull %6, ptr noundef nonnull @.str.57) #7
  %.not39 = icmp eq i32 %59, 0
  br i1 %.not39, label %60, label %62

60:                                               ; preds = %58
  %61 = call i32 @PyDict_SetItemString(ptr noundef nonnull %6, ptr noundef nonnull @.str.58, ptr noundef nonnull @_Py_NoneStruct) #7
  %.not40 = icmp eq i32 %61, 0
  br i1 %.not40, label %.preheader, label %62

62:                                               ; preds = %60, %58
  %63 = load i32, ptr %6, align 8, !tbaa !3
  %.not.i56 = icmp sgt i32 %63, -1
  br i1 %.not.i56, label %64, label %Py_DECREF.exit57

64:                                               ; preds = %62
  %65 = add nsw i32 %63, -1
  store i32 %65, ptr %6, align 8, !tbaa !3
  %66 = icmp eq i32 %65, 0
  br i1 %66, label %67, label %Py_DECREF.exit57

67:                                               ; preds = %64
  call void @_Py_Dealloc(ptr noundef nonnull %6) #7
  br label %Py_DECREF.exit57

Py_DECREF.exit57:                                 ; preds = %62, %64, %67
  %68 = load i32, ptr %4, align 8, !tbaa !3
  %.not.i58 = icmp sgt i32 %68, -1
  br i1 %.not.i58, label %69, label %Py_DECREF.exit

69:                                               ; preds = %Py_DECREF.exit57
  %70 = add nsw i32 %68, -1
  store i32 %70, ptr %4, align 8, !tbaa !3
  %71 = icmp eq i32 %70, 0
  br i1 %71, label %72, label %Py_DECREF.exit

72:                                               ; preds = %69
  call void @_Py_Dealloc(ptr noundef nonnull %4) #7
  br label %Py_DECREF.exit

.preheader:                                       ; preds = %60, %103
  %.190 = phi i64 [ %104, %103 ], [ 0, %60 ]
  %73 = getelementptr [7 x ptr], ptr @__const.test_w_code_invalid.formats_4, i64 0, i64 %.190
  %74 = load ptr, ptr %73, align 8, !tbaa !17
  %75 = call i32 (ptr, ptr, ptr, ptr, ...) @PyArg_ParseTupleAndKeywords(ptr noundef nonnull %4, ptr noundef nonnull %6, ptr noundef %74, ptr noundef nonnull @test_w_code_invalid.keywords, ptr noundef nonnull %3, ptr noundef nonnull %3, ptr noundef nonnull %3, ptr noundef nonnull %3) #7
  %.not42 = icmp eq i32 %75, 0
  br i1 %.not42, label %89, label %76

76:                                               ; preds = %.preheader
  %77 = load i32, ptr %4, align 8, !tbaa !3
  %.not.i60 = icmp sgt i32 %77, -1
  br i1 %.not.i60, label %78, label %Py_DECREF.exit61

78:                                               ; preds = %76
  %79 = add nsw i32 %77, -1
  store i32 %79, ptr %4, align 8, !tbaa !3
  %80 = icmp eq i32 %79, 0
  br i1 %80, label %81, label %Py_DECREF.exit61

81:                                               ; preds = %78
  call void @_Py_Dealloc(ptr noundef nonnull %4) #7
  br label %Py_DECREF.exit61

Py_DECREF.exit61:                                 ; preds = %76, %78, %81
  %82 = load i32, ptr %6, align 8, !tbaa !3
  %.not.i62 = icmp sgt i32 %82, -1
  br i1 %.not.i62, label %83, label %Py_DECREF.exit63

83:                                               ; preds = %Py_DECREF.exit61
  %84 = add nsw i32 %82, -1
  store i32 %84, ptr %6, align 8, !tbaa !3
  %85 = icmp eq i32 %84, 0
  br i1 %85, label %86, label %Py_DECREF.exit63

86:                                               ; preds = %83
  call void @_Py_Dealloc(ptr noundef nonnull %6) #7
  br label %Py_DECREF.exit63

Py_DECREF.exit63:                                 ; preds = %Py_DECREF.exit61, %83, %86
  %87 = load ptr, ptr @PyExc_AssertionError, align 8, !tbaa !12
  %88 = call ptr (ptr, ptr, ...) @PyErr_Format(ptr noundef %87, ptr noundef nonnull @.str.138, ptr noundef %74) #7
  br label %Py_DECREF.exit

89:                                               ; preds = %.preheader
  %90 = load ptr, ptr @PyExc_SystemError, align 8, !tbaa !12
  %91 = call i32 @PyErr_ExceptionMatches(ptr noundef %90) #7
  %.not43 = icmp eq i32 %91, 0
  br i1 %.not43, label %92, label %103

92:                                               ; preds = %89
  %93 = load i32, ptr %4, align 8, !tbaa !3
  %.not.i64 = icmp sgt i32 %93, -1
  br i1 %.not.i64, label %94, label %Py_DECREF.exit65

94:                                               ; preds = %92
  %95 = add nsw i32 %93, -1
  store i32 %95, ptr %4, align 8, !tbaa !3
  %96 = icmp eq i32 %95, 0
  br i1 %96, label %97, label %Py_DECREF.exit65

97:                                               ; preds = %94
  call void @_Py_Dealloc(ptr noundef nonnull %4) #7
  br label %Py_DECREF.exit65

Py_DECREF.exit65:                                 ; preds = %92, %94, %97
  %98 = load i32, ptr %6, align 8, !tbaa !3
  %.not.i66 = icmp sgt i32 %98, -1
  br i1 %.not.i66, label %99, label %Py_DECREF.exit

99:                                               ; preds = %Py_DECREF.exit65
  %100 = add nsw i32 %98, -1
  store i32 %100, ptr %6, align 8, !tbaa !3
  %101 = icmp eq i32 %100, 0
  br i1 %101, label %102, label %Py_DECREF.exit

102:                                              ; preds = %99
  call void @_Py_Dealloc(ptr noundef nonnull %6) #7
  br label %Py_DECREF.exit

103:                                              ; preds = %89
  call void @PyErr_Clear() #7
  %104 = add nuw nsw i64 %.190, 1
  %exitcond96 = icmp eq i64 %104, 6
  br i1 %exitcond96, label %105, label %.preheader, !llvm.loop !52

105:                                              ; preds = %103
  %106 = load i32, ptr %4, align 8, !tbaa !3
  %.not.i68 = icmp sgt i32 %106, -1
  br i1 %.not.i68, label %107, label %Py_DECREF.exit69

107:                                              ; preds = %105
  %108 = add nsw i32 %106, -1
  store i32 %108, ptr %4, align 8, !tbaa !3
  %109 = icmp eq i32 %108, 0
  br i1 %109, label %110, label %Py_DECREF.exit69

110:                                              ; preds = %107
  call void @_Py_Dealloc(ptr noundef nonnull %4) #7
  br label %Py_DECREF.exit69

Py_DECREF.exit69:                                 ; preds = %105, %107, %110
  %111 = load i32, ptr %6, align 8, !tbaa !3
  %.not.i70 = icmp sgt i32 %111, -1
  br i1 %.not.i70, label %112, label %Py_DECREF.exit

112:                                              ; preds = %Py_DECREF.exit69
  %113 = add nsw i32 %111, -1
  store i32 %113, ptr %6, align 8, !tbaa !3
  %114 = icmp eq i32 %113, 0
  br i1 %114, label %115, label %Py_DECREF.exit

115:                                              ; preds = %112
  call void @_Py_Dealloc(ptr noundef nonnull %6) #7
  br label %Py_DECREF.exit

Py_DECREF.exit:                                   ; preds = %115, %112, %Py_DECREF.exit69, %102, %99, %Py_DECREF.exit65, %72, %69, %Py_DECREF.exit57, %55, %52, %Py_DECREF.exit53, %25, %22, %Py_DECREF.exit47, %12, %9, %7, %2, %Py_DECREF.exit63, %Py_DECREF.exit51
  %.0 = phi ptr [ null, %Py_DECREF.exit51 ], [ null, %Py_DECREF.exit63 ], [ null, %2 ], [ null, %7 ], [ null, %9 ], [ null, %12 ], [ null, %Py_DECREF.exit47 ], [ null, %22 ], [ null, %25 ], [ null, %Py_DECREF.exit53 ], [ null, %52 ], [ null, %55 ], [ null, %Py_DECREF.exit57 ], [ null, %69 ], [ null, %72 ], [ null, %Py_DECREF.exit65 ], [ null, %99 ], [ null, %102 ], [ @_Py_NoneStruct, %Py_DECREF.exit69 ], [ @_Py_NoneStruct, %112 ], [ @_Py_NoneStruct, %115 ]
  call void @llvm.lifetime.end.p0(i64 8, ptr nonnull %3) #7
  ret ptr %.0
}